target datalayout = "e-m:e-p270:32:32-p271:32:32-p272:64:64-i64:64-i128:128-f80:128-n8:16:32:64-S128"
target triple = "x86_64-pc-linux-gnu"

%struct.slurm_conf_t = type { i64, ptr, i16, ptr, ptr, ptr, ptr, ptr, i16, ptr, ptr, ptr, ptr, ptr, ptr, ptr, i16, ptr, ptr, ptr, ptr, i16, ptr, ptr, ptr, i64, ptr, ptr, ptr, ptr, i16, ptr, ptr, i16, i32, ptr, i32, ptr, i32, i32, ptr, ptr, i64, i64, ptr, i16, i16, ptr, i32, i32, ptr, i32, ptr, i32, i16, i16, i16, ptr, i16, i16, ptr, ptr, i32, i16, i16, ptr, i32, i16, ptr, ptr, ptr, ptr, i16, ptr, ptr, ptr, ptr, i32, ptr, ptr, ptr, ptr, i16, i16, ptr, i32, i32, i32, i16, i16, ptr, ptr, i16, ptr, ptr, i32, i32, i32, i32, i32, i64, i32, i32, i16, ptr, ptr, i32, ptr, ptr, ptr, i16, i32, ptr, ptr, i16, ptr, ptr, i32, i16, ptr, ptr, ptr, ptr, i32, i32, i16, i16, i32, ptr, i16, ptr, i32, i32, i32, i32, i32, i32, ptr, i16, ptr, ptr, i32, i16, ptr, i32, i16, i16, ptr, ptr, ptr, i16, ptr, ptr, ptr, ptr, i16, i16, ptr, i16, ptr, i16, ptr, i16, ptr, i16, ptr, ptr, ptr, ptr, i16, ptr, ptr, ptr, i32, ptr, i32, ptr, ptr, i16, ptr, ptr, i32, i16, ptr, ptr, i16, i16, ptr, i16, ptr, ptr, ptr, i32, ptr, i16, i16, ptr, ptr, ptr, ptr, ptr, ptr, ptr, ptr, i16, i32, i16, ptr, ptr, ptr, ptr, i32, ptr, ptr, ptr, i16, ptr, ptr, ptr, i16, ptr, i16, ptr, i16, i16, ptr }
%struct.data_s = type { i32, i32, %union.anon }
%union.anon = type { ptr }
%struct.data_list_s = type { i32, i64, ptr, ptr }
%struct.data_list_node_s = type { i32, ptr, ptr, ptr }

@slurm_conf = external global %struct.slurm_conf_t, align 8
@.str.74 = private unnamed_addr constant [64 x i8] c"DATA: %s: append dictionary entry data-list-node(0x%lx)[%s]=%pD\00", align 1
@__func__._data_list_append = private unnamed_addr constant [18 x i8] c"_data_list_append\00", align 1
@.str.75 = private unnamed_addr constant [54 x i8] c"DATA: %s: append list entry data-list-node(0x%lx)=%pD\00", align 1

; Function Attrs: nounwind uwtable
define internal void @_check_data_list_node_magic(ptr noundef %0) #0 {
  %2 = alloca ptr, align 8
  store ptr %0, ptr %2, align 8
  ret void
}

; Function Attrs: nounwind uwtable
define internal void @_check_magic(ptr noundef %0) #0 {
  %2 = alloca ptr, align 8
  store ptr %0, ptr %2, align 8
  %3 = load ptr, ptr %2, align 8
  %4 = icmp ne ptr %3, null
  br i1 %4, label %6, label %5

5:                                                ; preds = %1
  br label %29

6:                                                ; preds = %1
  %7 = load i64, ptr getelementptr inbounds nuw (%struct.slurm_conf_t, ptr @slurm_conf, i32 0, i32 42), align 8
  %8 = and i64 %7, 256
  %9 = icmp ne i64 %8, 0
  br i1 %9, label %10, label %29

10:                                               ; preds = %6
  %11 = load ptr, ptr %2, align 8
  %12 = getelementptr inbounds nuw %struct.data_s, ptr %11, i32 0, i32 1
  %13 = load i32, ptr %12, align 4
  %14 = icmp eq i32 %13, 65282
  br i1 %14, label %15, label %19

15:                                               ; preds = %10
  %16 = load ptr, ptr %2, align 8
  %17 = getelementptr inbounds nuw %struct.data_s, ptr %16, i32 0, i32 2
  %18 = load ptr, ptr %17, align 8
  call void @_check_data_list_magic(ptr noundef %18)
  br label %19

19:                                               ; preds = %15, %10
  %20 = load ptr, ptr %2, align 8
  %21 = getelementptr inbounds nuw %struct.data_s, ptr %20, i32 0, i32 1
  %22 = load i32, ptr %21, align 4
  %23 = icmp eq i32 %22, 65283
  br i1 %23, label %24, label %28

24:                                               ; preds = %19
  %25 = load ptr, ptr %2, align 8
  %26 = getelementptr inbounds nuw %struct.data_s, ptr %25, i32 0, i32 2
  %27 = load ptr, ptr %26, align 8
  call void @_check_data_list_magic(ptr noundef %27)
  br label %28

28:                                               ; preds = %24, %19
  br label %29

29:                                               ; preds = %5, %28, %6
  ret void
}

; Function Attrs: nounwind uwtable
define internal void @_check_data_list_magic(ptr noundef %0) #0 {
  %2 = alloca ptr, align 8
  store ptr %0, ptr %2, align 8
  ret void
}

; Function Attrs: nounwind uwtable
define internal void @_data_list_append(ptr noundef %0, ptr noundef %1, ptr noundef %2) #0 {
  %4 = alloca ptr, align 8
  %5 = alloca ptr, align 8
  %6 = alloca ptr, align 8
  %7 = alloca ptr, align 8
  store ptr %0, ptr %4, align 8
  store ptr %1, ptr %5, align 8
  store ptr %2, ptr %6, align 8
  call void @llvm.lifetime.start.p0(i64 8, ptr %7) #10
  %8 = load ptr, ptr %5, align 8
  %9 = load ptr, ptr %6, align 8
  %10 = call ptr @_new_data_list_node(ptr noundef %8, ptr noundef %9)
  store ptr %10, ptr %7, align 8
  %11 = load ptr, ptr %4, align 8
  call void @_check_data_list_magic(ptr noundef %11)
  %12 = load ptr, ptr %5, align 8
  call void @_check_magic(ptr noundef %12)
  %13 = load ptr, ptr %4, align 8
  %14 = getelementptr inbounds nuw %struct.data_list_s, ptr %13, i32 0, i32 3
  %15 = load ptr, ptr %14, align 8
  %16 = icmp ne ptr %15, null
  br i1 %16, label %17, label %32

17:                                               ; preds = %3
  %18 = load ptr, ptr %4, align 8
  %19 = getelementptr inbounds nuw %struct.data_list_s, ptr %18, i32 0, i32 3
  %20 = load ptr, ptr %19, align 8
  call void @_check_data_list_node_magic(ptr noundef %20)
  %21 = load ptr, ptr %4, align 8
  %22 = getelementptr inbounds nuw %struct.data_list_s, ptr %21, i32 0, i32 2
  %23 = load ptr, ptr %22, align 8
  call void @_check_data_list_node_magic(ptr noundef %23)
  %24 = load ptr, ptr %7, align 8
  %25 = load ptr, ptr %4, align 8
  %26 = getelementptr inbounds nuw %struct.data_list_s, ptr %25, i32 0, i32 3
  %27 = load ptr, ptr %26, align 8
  %28 = getelementptr inbounds nuw %struct.data_list_node_s, ptr %27, i32 0, i32 1
  store ptr %24, ptr %28, align 8
  %29 = load ptr, ptr %7, align 8
  %30 = load ptr, ptr %4, align 8
  %31 = getelementptr inbounds nuw %struct.data_list_s, ptr %30, i32 0, i32 3
  store ptr %29, ptr %31, align 8
  br label %39

32:                                               ; preds = %3
  %33 = load ptr, ptr %7, align 8
  %34 = load ptr, ptr %4, align 8
  %35 = getelementptr inbounds nuw %struct.data_list_s, ptr %34, i32 0, i32 3
  store ptr %33, ptr %35, align 8
  %36 = load ptr, ptr %7, align 8
  %37 = load ptr, ptr %4, align 8
  %38 = getelementptr inbounds nuw %struct.data_list_s, ptr %37, i32 0, i32 2
  store ptr %36, ptr %38, align 8
  br label %39

39:                                               ; preds = %32, %17
  %40 = load ptr, ptr %4, align 8
  %41 = getelementptr inbounds nuw %struct.data_list_s, ptr %40, i32 0, i32 1
  %42 = load i64, ptr %41, align 8
  %43 = add i64 %42, 1
  store i64 %43, ptr %41, align 8
  %44 = load ptr, ptr %7, align 8
  %45 = getelementptr inbounds nuw %struct.data_list_node_s, ptr %44, i32 0, i32 3
  %46 = load ptr, ptr %45, align 8
  %47 = icmp ne ptr %46, null
  br i1 %47, label %48, label %72

48:                                               ; preds = %39
  br label %49

49:                                               ; preds = %48
  %50 = load i64, ptr getelementptr inbounds nuw (%struct.slurm_conf_t, ptr @slurm_conf, i32 0, i32 42), align 8
  %51 = and i64 %50, 256
  %52 = icmp ne i64 %51, 0
  br i1 %52, label %53, label %69

53:                                               ; preds = %49
  br label %54

54:                                               ; preds = %53
  %55 = call i32 @get_log_level()
  %56 = icmp sge i32 %55, 4
  br i1 %56, label %57, label %66

57:                                               ; preds = %54
  %58 = load ptr, ptr %7, align 8
  %59 = ptrtoint ptr %58 to i64
  %60 = load ptr, ptr %7, align 8
  %61 = getelementptr inbounds nuw %struct.data_list_node_s, ptr %60, i32 0, i32 3
  %62 = load ptr, ptr %61, align 8
  %63 = load ptr, ptr %7, align 8
  %64 = getelementptr inbounds nuw %struct.data_list_node_s, ptr %63, i32 0, i32 2
  %65 = load ptr, ptr %64, align 8
  call void (i32, ptr, ...) @log_var(i32 noundef 4, ptr noundef @.str.74, ptr noundef @__func__._data_list_append, i64 noundef %59, ptr noundef %62, ptr noundef %65)
  br label %66

66:                                               ; preds = %57, %54
  br label %67

67:                                               ; preds = %66
  br label %68

68:                                               ; preds = %67
  br label %69

69:                                               ; preds = %68, %49
  br label %70

70:                                               ; preds = %69
  br label %71

71:                                               ; preds = %70
  br label %93

72:                                               ; preds = %39
  br label %73

73:                                               ; preds = %72
  %74 = load i64, ptr getelementptr inbounds nuw (%struct.slurm_conf_t, ptr @slurm_conf, i32 0, i32 42), align 8
  %75 = and i64 %74, 256
  %76 = icmp ne i64 %75, 0
  br i1 %76, label %77, label %90

77:                                               ; preds = %73
  br label %78

78:                                               ; preds = %77
  %79 = call i32 @get_log_level()
  %80 = icmp sge i32 %79, 4
  br i1 %80, label %81, label %87

81:                                               ; preds = %78
  %82 = load ptr, ptr %7, align 8
  %83 = ptrtoint ptr %82 to i64
  %84 = load ptr, ptr %7, align 8
  %85 = getelementptr inbounds nuw %struct.data_list_node_s, ptr %84, i32 0, i32 2
  %86 = load ptr, ptr %85, align 8
  call void (i32, ptr, ...) @log_var(i32 noundef 4, ptr noundef @.str.75, ptr noundef @__func__._data_list_append, i64 noundef %83, ptr noundef %86)
  br label %87

87:                                               ; preds = %81, %78
  br label %88

88:                                               ; preds = %87
  br label %89

89:                                               ; preds = %88
  br label %90

90:                                               ; preds = %89, %73
  br label %91

91:                                               ; preds = %90
  br label %92

92:                                               ; preds = %91
  br label %93

93:                                               ; preds = %92, %71
  call void @llvm.lifetime.end.p0(i64 8, ptr %7) #10
  ret void
}