; Function Attrs: nounwind uwtable
define internal fastcc void @_data_list_append(ptr noundef captures(none) %0, ptr noundef %1, ptr noundef %2) unnamed_addr #0 {
  %4 = tail call fastcc ptr @_new_data_list_node(ptr noundef %1, ptr noundef %2)
  %5 = getelementptr inbounds nuw i8, ptr %0, i64 24
  %6 = load ptr, ptr %5, align 8
  %.not = icmp eq ptr %6, null
  br i1 %.not, label %9, label %7

7:                                                ; preds = %3
  %8 = getelementptr inbounds nuw i8, ptr %6, i64 8
  store ptr %4, ptr %8, align 8
  br label %11

9:                                                ; preds = %3
  %10 = getelementptr inbounds nuw i8, ptr %0, i64 16
  store ptr %4, ptr %10, align 8
  br label %11

11:                                               ; preds = %9, %7
  store ptr %4, ptr %5, align 8
  %12 = getelementptr inbounds nuw i8, ptr %0, i64 8
  %13 = load i64, ptr %12, align 8
  %14 = add i64 %13, 1
  store i64 %14, ptr %12, align 8
  %15 = getelementptr inbounds nuw i8, ptr %4, i64 24
  %16 = load ptr, ptr %15, align 8
  %.not22 = icmp eq ptr %16, null
  %17 = load i64, ptr getelementptr inbounds nuw (i8, ptr @slurm_conf, i64 320), align 8
  %18 = and i64 %17, 256
  %.not23 = icmp eq i64 %18, 0
  br i1 %.not22, label %28, label %19

19:                                               ; preds = %11
  br i1 %.not23, label %36, label %20

20:                                               ; preds = %19
  %21 = tail call i32 @get_log_level() #16
  %22 = icmp sgt i32 %21, 3
  br i1 %22, label %23, label %36

23:                                               ; preds = %20
  %24 = ptrtoint ptr %4 to i64
  %25 = load ptr, ptr %15, align 8
  %26 = getelementptr inbounds nuw i8, ptr %4, i64 16
  %27 = load ptr, ptr %26, align 8
  tail call void (i32, ptr, ...) @log_var(i32 noundef 4, ptr noundef nonnull @.str.74, ptr noundef nonnull @__func__._data_list_append, i64 noundef %24, ptr noundef %25, ptr noundef %27) #16
  br label %36

28:                                               ; preds = %11
  br i1 %.not23, label %36, label %29

29:                                               ; preds = %28
  %30 = tail call i32 @get_log_level() #16
  %31 = icmp sgt i32 %30, 3
  br i1 %31, label %32, label %36

32:                                               ; preds = %29
  %33 = ptrtoint ptr %4 to i64
  %34 = getelementptr inbounds nuw i8, ptr %4, i64 16
  %35 = load ptr, ptr %34, align 8
  tail call void (i32, ptr, ...) @log_var(i32 noundef 4, ptr noundef nonnull @.str.75, ptr noundef nonnull @__func__._data_list_append, i64 noundef %33, ptr noundef %35) #16
  br label %36

36:                                               ; preds = %28, %32, %29, %19, %23, %20
  ret void
}